target datalayout = "e-m:e-p270:32:32-p271:32:32-p272:64:64-i64:64-i128:128-f80:128-n8:16:32:64-S128"
target triple = "x86_64-pc-linux-gnu"

%struct.CFF_FDSelectRec_ = type { i8, i32, ptr, i32, i32, i32, i8 }

; Function Attrs: nounwind uwtable
define internal i32 @CFF_Load_FD_Select(ptr noundef %0, i32 noundef %1, ptr noundef %2, i64 noundef %3) #0 {
  %5 = alloca ptr, align 8
  %6 = alloca i32, align 4
  %7 = alloca ptr, align 8
  %8 = alloca i64, align 8
  %9 = alloca i32, align 4
  %10 = alloca i8, align 1
  %11 = alloca i32, align 4
  store ptr %0, ptr %5, align 8
  store i32 %1, ptr %6, align 4
  store ptr %2, ptr %7, align 8
  store i64 %3, ptr %8, align 8
  %12 = load ptr, ptr %7, align 8
  %13 = load i64, ptr %8, align 8
  %14 = call i32 @FT_Stream_Seek(ptr noundef %12, i64 noundef %13)
  store i32 %14, ptr %9, align 4
  %15 = icmp ne i32 %14, 0
  br i1 %15, label %21, label %16

16:                                               ; preds = %4
  %17 = load ptr, ptr %7, align 8
  %18 = call zeroext i8 @FT_Stream_ReadByte(ptr noundef %17, ptr noundef %9)
  store i8 %18, ptr %10, align 1
  %19 = load i32, ptr %9, align 4
  %20 = icmp ne i32 %19, 0
  br i1 %20, label %21, label %22

21:                                               ; preds = %16, %4
  br label %67

22:                                               ; preds = %16
  %23 = load i8, ptr %10, align 1
  %24 = load ptr, ptr %5, align 8
  %25 = getelementptr inbounds %struct.CFF_FDSelectRec_, ptr %24, i32 0, i32 0
  store i8 %23, ptr %25, align 8
  %26 = load ptr, ptr %5, align 8
  %27 = getelementptr inbounds %struct.CFF_FDSelectRec_, ptr %26, i32 0, i32 5
  store i32 0, ptr %27, align 8
  %28 = load i8, ptr %10, align 1
  %29 = zext i8 %28 to i32
  switch i32 %29, label %65 [
    i32 0, label %30
    i32 3, label %34
  ]

30:                                               ; preds = %22
  %31 = load i32, ptr %6, align 4
  %32 = load ptr, ptr %5, align 8
  %33 = getelementptr inbounds %struct.CFF_FDSelectRec_, ptr %32, i32 0, i32 3
  store i32 %31, ptr %33, align 8
  br label %53

34:                                               ; preds = %22
  %35 = load ptr, ptr %7, align 8
  %36 = call zeroext i16 @FT_Stream_ReadUShort(ptr noundef %35, ptr noundef %9)
  %37 = zext i16 %36 to i32
  store i32 %37, ptr %11, align 4
  %38 = load i32, ptr %9, align 4
  %39 = icmp ne i32 %38, 0
  br i1 %39, label %40, label %41

40:                                               ; preds = %34
  br label %67

41:                                               ; preds = %34
  %42 = load i32, ptr %11, align 4
  %43 = icmp ne i32 %42, 0
  br i1 %43, label %47, label %44

44:                                               ; preds = %41
  br label %45

45:                                               ; preds = %44
  br label %46

46:                                               ; preds = %45
  store i32 3, ptr %9, align 4
  br label %67

47:                                               ; preds = %41
  %48 = load i32, ptr %11, align 4
  %49 = mul i32 %48, 3
  %50 = add i32 %49, 2
  %51 = load ptr, ptr %5, align 8
  %52 = getelementptr inbounds %struct.CFF_FDSelectRec_, ptr %51, i32 0, i32 3
  store i32 %50, ptr %52, align 8
  br label %53

53:                                               ; preds = %47, %30
  %54 = load ptr, ptr %7, align 8
  %55 = load ptr, ptr %5, align 8
  %56 = getelementptr inbounds %struct.CFF_FDSelectRec_, ptr %55, i32 0, i32 3
  %57 = load i32, ptr %56, align 8
  %58 = zext i32 %57 to i64
  %59 = load ptr, ptr %5, align 8
  %60 = getelementptr inbounds %struct.CFF_FDSelectRec_, ptr %59, i32 0, i32 2
  %61 = call i32 @FT_Stream_ExtractFrame(ptr noundef %54, i64 noundef %58, ptr noundef %60)
  store i32 %61, ptr %9, align 4
  %62 = icmp ne i32 %61, 0
  br i1 %62, label %63, label %64

63:                                               ; preds = %53
  br label %67

64:                                               ; preds = %53
  br label %66

65:                                               ; preds = %22
  store i32 3, ptr %9, align 4
  br label %66

66:                                               ; preds = %65, %64
  br label %67

67:                                               ; preds = %66, %63, %46, %40, %21
  %68 = load i32, ptr %9, align 4
  ret i32 %68
}