; Function Attrs: nounwind uwtable
define internal fastcc i32 @CFF_Load_FD_Select(ptr noundef %0, i32 noundef %1, ptr noundef %2, i64 noundef %3) unnamed_addr #4 {
  %5 = alloca i32, align 4
  %6 = tail call i32 @FT_Stream_Seek(ptr noundef %2, i64 noundef %3) #20
  store i32 %6, ptr %5, align 4
  %.not = icmp eq i32 %6, 0
  br i1 %.not, label %7, label %25

7:                                                ; preds = %4
  %8 = call zeroext i8 @FT_Stream_ReadByte(ptr noundef %2, ptr noundef nonnull %5) #20
  %9 = load i32, ptr %5, align 4
  %.not15 = icmp eq i32 %9, 0
  br i1 %.not15, label %10, label %25

10:                                               ; preds = %7
  store i8 %8, ptr %0, align 8
  %11 = getelementptr inbounds i8, ptr %0, i64 24
  store i32 0, ptr %11, align 8
  switch i8 %8, label %25 [
    i8 0, label %20
    i8 3, label %12
  ]

12:                                               ; preds = %10
  %13 = call zeroext i16 @FT_Stream_ReadUShort(ptr noundef %2, ptr noundef nonnull %5) #20
  %14 = zext i16 %13 to i32
  %15 = load i32, ptr %5, align 4
  %.not16 = icmp eq i32 %15, 0
  br i1 %.not16, label %16, label %25

16:                                               ; preds = %12
  %.not17 = icmp eq i16 %13, 0
  br i1 %.not17, label %25, label %17

17:                                               ; preds = %16
  %18 = mul nuw nsw i32 %14, 3
  %19 = add nuw nsw i32 %18, 2
  br label %20

20:                                               ; preds = %10, %17
  %.sink = phi i32 [ %19, %17 ], [ %1, %10 ]
  %21 = getelementptr inbounds i8, ptr %0, i64 16
  store i32 %.sink, ptr %21, align 8
  %22 = zext i32 %.sink to i64
  %23 = getelementptr inbounds i8, ptr %0, i64 8
  %24 = call i32 @FT_Stream_ExtractFrame(ptr noundef %2, i64 noundef %22, ptr noundef nonnull %23) #20
  br label %25

25:                                               ; preds = %10, %16, %20, %12, %4, %7
  %26 = phi i32 [ %24, %20 ], [ %15, %12 ], [ %6, %4 ], [ %9, %7 ], [ 3, %16 ], [ 3, %10 ]
  ret i32 %26
}